target datalayout = "e-m:e-p270:32:32-p271:32:32-p272:64:64-i64:64-i128:128-f80:128-n8:16:32:64-S128"
target triple = "x86_64-pc-linux-gnu"

%struct.repository = type { ptr, ptr, ptr, ptr, ptr, %struct.strmap, %struct.strmap, %struct.repo_path_cache, ptr, ptr, ptr, ptr, %struct.repo_settings, ptr, ptr, ptr, ptr, ptr, ptr, i32, i32, i32, ptr, ptr, i32, i32, i8 }
%struct.strmap = type { %struct.hashmap, ptr, i8 }
%struct.hashmap = type { ptr, ptr, ptr, i32, i32, i32, i32, i8 }
%struct.repo_path_cache = type { ptr, ptr, ptr, ptr, ptr, ptr, ptr }
%struct.repo_settings = type { i32, i32, i32, i32, i32, i32, i32, i32, i32, i32, i32, i32, ptr, i32, i32, i32, i32, i32, i32, i32, i64, i64, i64 }
%struct.object_id = type { [32 x i8], i32 }
%struct.index_state = type { ptr, i32, i32, i32, i32, ptr, ptr, ptr, %struct.cache_time, i8, i32, %struct.hashmap, %struct.hashmap, %struct.object_id, ptr, ptr, ptr, ptr, ptr, ptr, ptr }
%struct.cache_time = type { i32, i32 }

@.str = private unnamed_addr constant [13 x i8] c"repository.c\00", align 1
@.str.10 = private unnamed_addr constant [41 x i8] c"repo's index should point back at itself\00", align 1
@.str.12 = private unnamed_addr constant [27 x i8] c"size_t overflow: %lu * %lu\00", align 1

; Function Attrs: inlinehint nounwind uwtable
define internal i64 @st_mult(i64 noundef %0, i64 noundef %1) #2 {
  %3 = alloca i64, align 8
  %4 = alloca i64, align 8
  store i64 %0, ptr %3, align 8, !tbaa !33
  store i64 %1, ptr %4, align 8, !tbaa !33
  %5 = load i64, ptr %3, align 8, !tbaa !33
  %6 = icmp ne i64 %5, 0
  br i1 %6, label %7, label %15

7:                                                ; preds = %2
  %8 = load i64, ptr %4, align 8, !tbaa !33
  %9 = load i64, ptr %3, align 8, !tbaa !33
  %10 = udiv i64 -1, %9
  %11 = icmp ugt i64 %8, %10
  br i1 %11, label %12, label %15

12:                                               ; preds = %7
  %13 = load i64, ptr %3, align 8, !tbaa !33
  %14 = load i64, ptr %4, align 8, !tbaa !33
  call void (ptr, ...) @die(ptr noundef @.str.12, i64 noundef %13, i64 noundef %14) #8
  unreachable

15:                                               ; preds = %7, %2
  %16 = load i64, ptr %3, align 8, !tbaa !33
  %17 = load i64, ptr %4, align 8, !tbaa !33
  %18 = mul i64 %16, %17
  ret i64 %18
}

; Function Attrs: nounwind uwtable
define dso_local i32 @repo_read_index(ptr noundef %0) #0 {
  %2 = alloca ptr, align 8
  %3 = alloca i32, align 4
  store ptr %0, ptr %2, align 8, !tbaa !4
  call void @llvm.lifetime.start.p0(i64 4, ptr %3) #9
  %4 = load ptr, ptr %2, align 8, !tbaa !4
  %5 = getelementptr inbounds nuw %struct.repository, ptr %4, i32 0, i32 15
  %6 = load ptr, ptr %5, align 8, !tbaa !32
  %7 = icmp ne ptr %6, null
  br i1 %7, label %17, label %8

8:                                                ; preds = %1
  %9 = call i64 @st_mult(i64 noundef 256, i64 noundef 1)
  %10 = call ptr @xmalloc(i64 noundef %9)
  %11 = load ptr, ptr %2, align 8, !tbaa !4
  %12 = getelementptr inbounds nuw %struct.repository, ptr %11, i32 0, i32 15
  store ptr %10, ptr %12, align 8, !tbaa !32
  %13 = load ptr, ptr %2, align 8, !tbaa !4
  %14 = getelementptr inbounds nuw %struct.repository, ptr %13, i32 0, i32 15
  %15 = load ptr, ptr %14, align 8, !tbaa !32
  %16 = load ptr, ptr %2, align 8, !tbaa !4
  call void @index_state_init(ptr noundef %15, ptr noundef %16)
  br label %27

17:                                               ; preds = %1
  %18 = load ptr, ptr %2, align 8, !tbaa !4
  %19 = getelementptr inbounds nuw %struct.repository, ptr %18, i32 0, i32 15
  %20 = load ptr, ptr %19, align 8, !tbaa !32
  %21 = getelementptr inbounds nuw %struct.index_state, ptr %20, i32 0, i32 19
  %22 = load ptr, ptr %21, align 8, !tbaa !134
  %23 = load ptr, ptr %2, align 8, !tbaa !4
  %24 = icmp ne ptr %22, %23
  br i1 %24, label %25, label %26

25:                                               ; preds = %17
  call void (ptr, i32, ptr, ...) @BUG_fl(ptr noundef @.str, i32 noundef 430, ptr noundef @.str.10) #8
  unreachable

26:                                               ; preds = %17
  br label %27

27:                                               ; preds = %26, %8
  %28 = load ptr, ptr %2, align 8, !tbaa !4
  %29 = getelementptr inbounds nuw %struct.repository, ptr %28, i32 0, i32 15
  %30 = load ptr, ptr %29, align 8, !tbaa !32
  %31 = load ptr, ptr %2, align 8, !tbaa !4
  %32 = getelementptr inbounds nuw %struct.repository, ptr %31, i32 0, i32 9
  %33 = load ptr, ptr %32, align 8, !tbaa !55
  %34 = load ptr, ptr %2, align 8, !tbaa !4
  %35 = getelementptr inbounds nuw %struct.repository, ptr %34, i32 0, i32 0
  %36 = load ptr, ptr %35, align 8, !tbaa !36
  %37 = call i32 @read_index_from(ptr noundef %30, ptr noundef %33, ptr noundef %36)
  store i32 %37, ptr %3, align 4, !tbaa !35
  %38 = load ptr, ptr %2, align 8, !tbaa !4
  call void @prepare_repo_settings(ptr noundef %38)
  %39 = load ptr, ptr %2, align 8, !tbaa !4
  %40 = getelementptr inbounds nuw %struct.repository, ptr %39, i32 0, i32 12
  %41 = getelementptr inbounds nuw %struct.repo_settings, ptr %40, i32 0, i32 6
  %42 = load i32, ptr %41, align 8, !tbaa !145
  %43 = icmp ne i32 %42, 0
  br i1 %43, label %44, label %48

44:                                               ; preds = %27
  %45 = load ptr, ptr %2, align 8, !tbaa !4
  %46 = getelementptr inbounds nuw %struct.repository, ptr %45, i32 0, i32 15
  %47 = load ptr, ptr %46, align 8, !tbaa !32
  call void @ensure_full_index(ptr noundef %47)
  br label %48

48:                                               ; preds = %44, %27
  %49 = load ptr, ptr %2, align 8, !tbaa !4
  %50 = getelementptr inbounds nuw %struct.repository, ptr %49, i32 0, i32 15
  %51 = load ptr, ptr %50, align 8, !tbaa !32
  call void @clear_skip_worktree_from_present_files(ptr noundef %51)
  %52 = load i32, ptr %3, align 4, !tbaa !35
  call void @llvm.lifetime.end.p0(i64 4, ptr %3) #9
  ret i32 %52
}