; Function Attrs: nounwind uwtable
define dso_local i32 @repo_read_index(ptr noundef %0) local_unnamed_addr #0 {
  %2 = getelementptr inbounds nuw i8, ptr %0, i64 384
  %3 = load ptr, ptr %2, align 8, !tbaa !30
  %.not = icmp eq ptr %3, null
  br i1 %.not, label %4, label %6

4:                                                ; preds = %1
  %5 = tail call ptr @xmalloc(i64 noundef 256) #10
  store ptr %5, ptr %2, align 8, !tbaa !30
  tail call void @index_state_init(ptr noundef %5, ptr noundef nonnull %0) #10
  %.pre = load ptr, ptr %2, align 8, !tbaa !30
  br label %10

6:                                                ; preds = %1
  %7 = getelementptr inbounds nuw i8, ptr %3, i64 240
  %8 = load ptr, ptr %7, align 8, !tbaa !110
  %.not13 = icmp eq ptr %8, %0
  br i1 %.not13, label %10, label %9

9:                                                ; preds = %6
  tail call void (ptr, i32, ptr, ...) @BUG_fl(ptr noundef nonnull @.str, i32 noundef 430, ptr noundef nonnull @.str.10) #11
  unreachable

10:                                               ; preds = %6, %4
  %11 = phi ptr [ %3, %6 ], [ %.pre, %4 ]
  %12 = getelementptr inbounds nuw i8, ptr %0, i64 232
  %13 = load ptr, ptr %12, align 8, !tbaa !53
  %14 = load ptr, ptr %0, align 8, !tbaa !34
  %15 = tail call i32 @read_index_from(ptr noundef %11, ptr noundef %13, ptr noundef %14) #10
  tail call void @prepare_repo_settings(ptr noundef nonnull %0) #10
  %16 = getelementptr inbounds nuw i8, ptr %0, i64 280
  %17 = load i32, ptr %16, align 8, !tbaa !121
  %.not14 = icmp eq i32 %17, 0
  br i1 %.not14, label %20, label %18

18:                                               ; preds = %10
  %19 = load ptr, ptr %2, align 8, !tbaa !30
  tail call void @ensure_full_index(ptr noundef %19) #10
  br label %20

20:                                               ; preds = %18, %10
  %21 = load ptr, ptr %2, align 8, !tbaa !30
  tail call void @clear_skip_worktree_from_present_files(ptr noundef %21) #10
  ret i32 %15
}